; Function Attrs: nofree nounwind memory(argmem: readwrite) uwtable
define void @TextAppend(ptr noundef %0, ptr noundef readonly captures(none) %1, ptr noundef captures(none) %2) local_unnamed_addr #30 {
.preheader.i:
  %3 = load i32, ptr %2, align 4
  %4 = sext i32 %3 to i64
  %5 = getelementptr inbounds i8, ptr %0, i64 %4
  %6 = tail call ptr @strcpy(ptr noundef nonnull dereferenceable(1) %5, ptr noundef nonnull dereferenceable(1) %1) #41
  %7 = load i8, ptr %1, align 1
  %.not56.i = icmp eq i8 %7, 0
  br i1 %.not56.i, label %TextLength.exit, label %.lr.ph.i

.lr.ph.i:                                         ; preds = %.preheader.i, %.lr.ph.i
  %.18.i = phi i32 [ %9, %.lr.ph.i ], [ 0, %.preheader.i ]
  %.037.i = phi ptr [ %8, %.lr.ph.i ], [ %1, %.preheader.i ]
  %8 = getelementptr inbounds nuw i8, ptr %.037.i, i64 1
  %9 = add i32 %.18.i, 1
  %10 = load i8, ptr %8, align 1
  %.not5.i = icmp eq i8 %10, 0
  br i1 %.not5.i, label %TextLength.exit, label %.lr.ph.i

TextLength.exit:                                  ; preds = %.lr.ph.i, %.preheader.i
  %.0.i = phi i32 [ 0, %.preheader.i ], [ %9, %.lr.ph.i ]
  %11 = load i32, ptr %2, align 4
  %12 = add i32 %11, %.0.i
  store i32 %12, ptr %2, align 4
  ret void
}